

Microchip MPLAB XC8 Assembler V2.32 build 20210201212658 
                                                                                               Mon Mar 22 14:40:08 2021

Microchip MPLAB XC8 C Compiler v2.32 (Free license) build 20210201212658 Og1 
     1                           	processor	16F1778
     2                           	pagewidth 120
     3                           	opt	flic
     4                           	psect	cinit,global,class=CODE,merge=1,delta=2
     5                           	psect	cstackCOMMON,global,class=COMMON,space=1,delta=1,noexec
     6                           	psect	maintext,global,class=CODE,merge=1,split=1,delta=2
     7                           	psect	text1,local,class=CODE,merge=1,delta=2
     8                           	psect	text2,local,class=CODE,merge=1,delta=2
     9                           	psect	text3,local,class=CODE,merge=1,delta=2
    10                           	psect	text4,local,class=CODE,merge=1,delta=2
    11                           	psect	config,global,abs,ovrld,class=CONFIG,space=4,delta=2,noexec
    12                           	dabs	1,0x7E,2
    13  0000                     
    14                           ; Version 2.20
    15                           ; Generated 12/02/2020 GMT
    16                           ; 
    17                           ; Copyright © 2020, Microchip Technology Inc. and its subsidiaries ("Microchip")
    18                           ; All rights reserved.
    19                           ; 
    20                           ; This software is developed by Microchip Technology Inc. and its subsidiaries ("Microch
      +                          ip").
    21                           ; 
    22                           ; Redistribution and use in source and binary forms, with or without modification, are
    23                           ; permitted provided that the following conditions are met:
    24                           ; 
    25                           ;     1. Redistributions of source code must retain the above copyright notice, this lis
      +                          t of
    26                           ;        conditions and the following disclaimer.
    27                           ; 
    28                           ;     2. Redistributions in binary form must reproduce the above copyright notice, this 
      +                          list
    29                           ;        of conditions and the following disclaimer in the documentation and/or other
    30                           ;        materials provided with the distribution.
    31                           ; 
    32                           ;     3. Microchip's name may not be used to endorse or promote products derived from th
      +                          is
    33                           ;        software without specific prior written permission.
    34                           ; 
    35                           ; THIS SOFTWARE IS PROVIDED BY MICROCHIP "AS IS" AND ANY EXPRESS OR IMPLIED WARRANTIES,
    36                           ; INCLUDING, BUT NOT LIMITED TO, THE IMPLIED WARRANTIES OF MERCHANTABILITY AND FITNESS F
      +                          OR
    37                           ; PURPOSE ARE DISCLAIMED.  IN NO EVENT SHALL MICROCHIP BE LIABLE FOR ANY DIRECT, INDIREC
      +                          T,
    38                           ; INCIDENTAL, SPECIAL, EXEMPLARY, OR CONSEQUENTIAL DAMAGES (INCLUDING BUT NOT LIMITED TO
    39                           ; PROCUREMENT OF SUBSTITUTE GOODS OR SERVICES; LOSS OF USE, DATA OR PROFITS; OR BUSINESS
    40                           ; INTERRUPTION) HOWSOEVER CAUSED AND ON ANY THEORY OF LIABILITY, WHETHER IN CONTRACT, ST
      +                          RICT
    41                           ; LIABILITY, OR TORT (INCLUDING NEGLIGENCE OR OTHERWISE) ARISING IN ANY WAY OUT OF THE U
      +                          SE OF
    42                           ; THIS SOFTWARE, EVEN IF ADVISED OF THE POSSIBILITY OF SUCH DAMAGE.
    43                           ; 
    44                           ; 
    45                           ; Code-generator required, PIC16F1778 Definitions
    46                           ; 
    47                           ; SFR Addresses
    48  0000                     	;# 
    49  0001                     	;# 
    50  0002                     	;# 
    51  0003                     	;# 
    52  0004                     	;# 
    53  0005                     	;# 
    54  0006                     	;# 
    55  0007                     	;# 
    56  0008                     	;# 
    57  0009                     	;# 
    58  000A                     	;# 
    59  000B                     	;# 
    60  000C                     	;# 
    61  000D                     	;# 
    62  000E                     	;# 
    63  0010                     	;# 
    64  0011                     	;# 
    65  0012                     	;# 
    66  0013                     	;# 
    67  0014                     	;# 
    68  0015                     	;# 
    69  0016                     	;# 
    70  0017                     	;# 
    71  0018                     	;# 
    72  0018                     	;# 
    73  0019                     	;# 
    74  001A                     	;# 
    75  001B                     	;# 
    76  001C                     	;# 
    77  001C                     	;# 
    78  001D                     	;# 
    79  001E                     	;# 
    80  001F                     	;# 
    81  008C                     	;# 
    82  008D                     	;# 
    83  008E                     	;# 
    84  0090                     	;# 
    85  0091                     	;# 
    86  0092                     	;# 
    87  0093                     	;# 
    88  0094                     	;# 
    89  0095                     	;# 
    90  0096                     	;# 
    91  0097                     	;# 
    92  0098                     	;# 
    93  0099                     	;# 
    94  009A                     	;# 
    95  009B                     	;# 
    96  009C                     	;# 
    97  009D                     	;# 
    98  009E                     	;# 
    99  009F                     	;# 
   100  010C                     	;# 
   101  010D                     	;# 
   102  010E                     	;# 
   103  0111                     	;# 
   104  0112                     	;# 
   105  0113                     	;# 
   106  0114                     	;# 
   107  0115                     	;# 
   108  0116                     	;# 
   109  0117                     	;# 
   110  0118                     	;# 
   111  0119                     	;# 
   112  011A                     	;# 
   113  011B                     	;# 
   114  011C                     	;# 
   115  011D                     	;# 
   116  018C                     	;# 
   117  018D                     	;# 
   118  018E                     	;# 
   119  0191                     	;# 
   120  0191                     	;# 
   121  0192                     	;# 
   122  0193                     	;# 
   123  0193                     	;# 
   124  0194                     	;# 
   125  0195                     	;# 
   126  0196                     	;# 
   127  0197                     	;# 
   128  0199                     	;# 
   129  0199                     	;# 
   130  0199                     	;# 
   131  019A                     	;# 
   132  019A                     	;# 
   133  019A                     	;# 
   134  019B                     	;# 
   135  019B                     	;# 
   136  019B                     	;# 
   137  019B                     	;# 
   138  019B                     	;# 
   139  019C                     	;# 
   140  019C                     	;# 
   141  019C                     	;# 
   142  019D                     	;# 
   143  019D                     	;# 
   144  019D                     	;# 
   145  019E                     	;# 
   146  019E                     	;# 
   147  019E                     	;# 
   148  019F                     	;# 
   149  019F                     	;# 
   150  019F                     	;# 
   151  019F                     	;# 
   152  019F                     	;# 
   153  020C                     	;# 
   154  020D                     	;# 
   155  020E                     	;# 
   156  0210                     	;# 
   157  0211                     	;# 
   158  0211                     	;# 
   159  0212                     	;# 
   160  0212                     	;# 
   161  0213                     	;# 
   162  0213                     	;# 
   163  0214                     	;# 
   164  0214                     	;# 
   165  0215                     	;# 
   166  0215                     	;# 
   167  0215                     	;# 
   168  0215                     	;# 
   169  0216                     	;# 
   170  0216                     	;# 
   171  0217                     	;# 
   172  0217                     	;# 
   173  021B                     	;# 
   174  021C                     	;# 
   175  021D                     	;# 
   176  021E                     	;# 
   177  021F                     	;# 
   178  028C                     	;# 
   179  028D                     	;# 
   180  028E                     	;# 
   181  0291                     	;# 
   182  0291                     	;# 
   183  0292                     	;# 
   184  0293                     	;# 
   185  0294                     	;# 
   186  0295                     	;# 
   187  0295                     	;# 
   188  0296                     	;# 
   189  0297                     	;# 
   190  0298                     	;# 
   191  0299                     	;# 
   192  0299                     	;# 
   193  029A                     	;# 
   194  029B                     	;# 
   195  029C                     	;# 
   196  029E                     	;# 
   197  029F                     	;# 
   198  030C                     	;# 
   199  030D                     	;# 
   200  030E                     	;# 
   201  0315                     	;# 
   202  0316                     	;# 
   203  0317                     	;# 
   204  0318                     	;# 
   205  0319                     	;# 
   206  031B                     	;# 
   207  031C                     	;# 
   208  031D                     	;# 
   209  031E                     	;# 
   210  031F                     	;# 
   211  038C                     	;# 
   212  038D                     	;# 
   213  038E                     	;# 
   214  0390                     	;# 
   215  0391                     	;# 
   216  0392                     	;# 
   217  0393                     	;# 
   218  0394                     	;# 
   219  0395                     	;# 
   220  0396                     	;# 
   221  0397                     	;# 
   222  0398                     	;# 
   223  0399                     	;# 
   224  039D                     	;# 
   225  039E                     	;# 
   226  039F                     	;# 
   227  040D                     	;# 
   228  040F                     	;# 
   229  040F                     	;# 
   230  0410                     	;# 
   231  0411                     	;# 
   232  0412                     	;# 
   233  0413                     	;# 
   234  0413                     	;# 
   235  0414                     	;# 
   236  0414                     	;# 
   237  0415                     	;# 
   238  0416                     	;# 
   239  0417                     	;# 
   240  0418                     	;# 
   241  041A                     	;# 
   242  041A                     	;# 
   243  041B                     	;# 
   244  041B                     	;# 
   245  041C                     	;# 
   246  041D                     	;# 
   247  041E                     	;# 
   248  041F                     	;# 
   249  048E                     	;# 
   250  048E                     	;# 
   251  048F                     	;# 
   252  0490                     	;# 
   253  0491                     	;# 
   254  0492                     	;# 
   255  0493                     	;# 
   256  0493                     	;# 
   257  0494                     	;# 
   258  0494                     	;# 
   259  0495                     	;# 
   260  0496                     	;# 
   261  0497                     	;# 
   262  0498                     	;# 
   263  049A                     	;# 
   264  049A                     	;# 
   265  049B                     	;# 
   266  049B                     	;# 
   267  049C                     	;# 
   268  049D                     	;# 
   269  049E                     	;# 
   270  049F                     	;# 
   271  050F                     	;# 
   272  0510                     	;# 
   273  0511                     	;# 
   274  0512                     	;# 
   275  0513                     	;# 
   276  0514                     	;# 
   277  0515                     	;# 
   278  0516                     	;# 
   279  0517                     	;# 
   280  0518                     	;# 
   281  0519                     	;# 
   282  051A                     	;# 
   283  058D                     	;# 
   284  058E                     	;# 
   285  058F                     	;# 
   286  058F                     	;# 
   287  058F                     	;# 
   288  0590                     	;# 
   289  0590                     	;# 
   290  0591                     	;# 
   291  0592                     	;# 
   292  0592                     	;# 
   293  0592                     	;# 
   294  0593                     	;# 
   295  0593                     	;# 
   296  0594                     	;# 
   297  0595                     	;# 
   298  0595                     	;# 
   299  0596                     	;# 
   300  0597                     	;# 
   301  0597                     	;# 
   302  0598                     	;# 
   303  0599                     	;# 
   304  0599                     	;# 
   305  0599                     	;# 
   306  059A                     	;# 
   307  059A                     	;# 
   308  059E                     	;# 
   309  059F                     	;# 
   310  059F                     	;# 
   311  0614                     	;# 
   312  0614                     	;# 
   313  0615                     	;# 
   314  0616                     	;# 
   315  0617                     	;# 
   316  0617                     	;# 
   317  0618                     	;# 
   318  0619                     	;# 
   319  061A                     	;# 
   320  061A                     	;# 
   321  061B                     	;# 
   322  061C                     	;# 
   323  068D                     	;# 
   324  068E                     	;# 
   325  068F                     	;# 
   326  0690                     	;# 
   327  0691                     	;# 
   328  0692                     	;# 
   329  0693                     	;# 
   330  0694                     	;# 
   331  0695                     	;# 
   332  0696                     	;# 
   333  0697                     	;# 
   334  0698                     	;# 
   335  0699                     	;# 
   336  069A                     	;# 
   337  069B                     	;# 
   338  069C                     	;# 
   339  069D                     	;# 
   340  069E                     	;# 
   341  069F                     	;# 
   342  070D                     	;# 
   343  070E                     	;# 
   344  070F                     	;# 
   345  0710                     	;# 
   346  0711                     	;# 
   347  0712                     	;# 
   348  0713                     	;# 
   349  0714                     	;# 
   350  0715                     	;# 
   351  0716                     	;# 
   352  0717                     	;# 
   353  0718                     	;# 
   354  0719                     	;# 
   355  071A                     	;# 
   356  071B                     	;# 
   357  071C                     	;# 
   358  071D                     	;# 
   359  071E                     	;# 
   360  071F                     	;# 
   361  078E                     	;# 
   362  078F                     	;# 
   363  0790                     	;# 
   364  0791                     	;# 
   365  0792                     	;# 
   366  0793                     	;# 
   367  0794                     	;# 
   368  0795                     	;# 
   369  0796                     	;# 
   370  0797                     	;# 
   371  0798                     	;# 
   372  0799                     	;# 
   373  079A                     	;# 
   374  079B                     	;# 
   375  079C                     	;# 
   376  079D                     	;# 
   377  079E                     	;# 
   378  079F                     	;# 
   379  080D                     	;# 
   380  080E                     	;# 
   381  080F                     	;# 
   382  0810                     	;# 
   383  0811                     	;# 
   384  0812                     	;# 
   385  0813                     	;# 
   386  0814                     	;# 
   387  0815                     	;# 
   388  0816                     	;# 
   389  0817                     	;# 
   390  0818                     	;# 
   391  0819                     	;# 
   392  081A                     	;# 
   393  081B                     	;# 
   394  081C                     	;# 
   395  081D                     	;# 
   396  081E                     	;# 
   397  081F                     	;# 
   398  090C                     	;# 
   399  090D                     	;# 
   400  090E                     	;# 
   401  090F                     	;# 
   402  0910                     	;# 
   403  0911                     	;# 
   404  0912                     	;# 
   405  0913                     	;# 
   406  0914                     	;# 
   407  0915                     	;# 
   408  0916                     	;# 
   409  0917                     	;# 
   410  0D8E                     	;# 
   411  0D8F                     	;# 
   412  0D90                     	;# 
   413  0D91                     	;# 
   414  0D91                     	;# 
   415  0D92                     	;# 
   416  0D93                     	;# 
   417  0D93                     	;# 
   418  0D94                     	;# 
   419  0D95                     	;# 
   420  0D95                     	;# 
   421  0D96                     	;# 
   422  0D97                     	;# 
   423  0D97                     	;# 
   424  0D98                     	;# 
   425  0D99                     	;# 
   426  0D99                     	;# 
   427  0D9A                     	;# 
   428  0D9B                     	;# 
   429  0D9C                     	;# 
   430  0D9C                     	;# 
   431  0D9D                     	;# 
   432  0D9D                     	;# 
   433  0D9E                     	;# 
   434  0D9F                     	;# 
   435  0DA0                     	;# 
   436  0DA1                     	;# 
   437  0DA1                     	;# 
   438  0DA2                     	;# 
   439  0DA3                     	;# 
   440  0DA3                     	;# 
   441  0DA4                     	;# 
   442  0DA5                     	;# 
   443  0DA5                     	;# 
   444  0DA6                     	;# 
   445  0DA7                     	;# 
   446  0DA7                     	;# 
   447  0DA8                     	;# 
   448  0DA9                     	;# 
   449  0DA9                     	;# 
   450  0DAA                     	;# 
   451  0DAB                     	;# 
   452  0DAC                     	;# 
   453  0DAC                     	;# 
   454  0DAD                     	;# 
   455  0DAD                     	;# 
   456  0DAE                     	;# 
   457  0DAF                     	;# 
   458  0DB0                     	;# 
   459  0DB1                     	;# 
   460  0DB1                     	;# 
   461  0DB2                     	;# 
   462  0DB3                     	;# 
   463  0DB3                     	;# 
   464  0DB4                     	;# 
   465  0DB5                     	;# 
   466  0DB5                     	;# 
   467  0DB6                     	;# 
   468  0DB7                     	;# 
   469  0DB7                     	;# 
   470  0DB8                     	;# 
   471  0DB9                     	;# 
   472  0DB9                     	;# 
   473  0DBA                     	;# 
   474  0DBB                     	;# 
   475  0DBC                     	;# 
   476  0DBC                     	;# 
   477  0DBD                     	;# 
   478  0DBD                     	;# 
   479  0DBE                     	;# 
   480  0DBF                     	;# 
   481  0DC0                     	;# 
   482  0E0C                     	;# 
   483  0E0D                     	;# 
   484  0E0E                     	;# 
   485  0E0F                     	;# 
   486  0E10                     	;# 
   487  0E11                     	;# 
   488  0E12                     	;# 
   489  0E13                     	;# 
   490  0E14                     	;# 
   491  0E15                     	;# 
   492  0E15                     	;# 
   493  0E15                     	;# 
   494  0E16                     	;# 
   495  0E16                     	;# 
   496  0E16                     	;# 
   497  0E17                     	;# 
   498  0E17                     	;# 
   499  0E17                     	;# 
   500  0E18                     	;# 
   501  0E18                     	;# 
   502  0E18                     	;# 
   503  0E19                     	;# 
   504  0E1A                     	;# 
   505  0E1B                     	;# 
   506  0E1D                     	;# 
   507  0E1E                     	;# 
   508  0E1F                     	;# 
   509  0E21                     	;# 
   510  0E22                     	;# 
   511  0E23                     	;# 
   512  0E24                     	;# 
   513  0E25                     	;# 
   514  0E26                     	;# 
   515  0E27                     	;# 
   516  0E28                     	;# 
   517  0E29                     	;# 
   518  0E2D                     	;# 
   519  0E2E                     	;# 
   520  0E2F                     	;# 
   521  0E30                     	;# 
   522  0E31                     	;# 
   523  0E32                     	;# 
   524  0E35                     	;# 
   525  0E36                     	;# 
   526  0E37                     	;# 
   527  0E38                     	;# 
   528  0E39                     	;# 
   529  0E3A                     	;# 
   530  0E3B                     	;# 
   531  0E3C                     	;# 
   532  0E3D                     	;# 
   533  0E3E                     	;# 
   534  0E90                     	;# 
   535  0E91                     	;# 
   536  0E92                     	;# 
   537  0E93                     	;# 
   538  0E94                     	;# 
   539  0E95                     	;# 
   540  0E96                     	;# 
   541  0E97                     	;# 
   542  0E98                     	;# 
   543  0E99                     	;# 
   544  0E9A                     	;# 
   545  0E9B                     	;# 
   546  0E9C                     	;# 
   547  0E9D                     	;# 
   548  0E9E                     	;# 
   549  0E9F                     	;# 
   550  0EA0                     	;# 
   551  0EA1                     	;# 
   552  0EA2                     	;# 
   553  0EA3                     	;# 
   554  0EA4                     	;# 
   555  0EA5                     	;# 
   556  0EA6                     	;# 
   557  0EA7                     	;# 
   558  0F0F                     	;# 
   559  0F10                     	;# 
   560  0F11                     	;# 
   561  0F12                     	;# 
   562  0F13                     	;# 
   563  0F14                     	;# 
   564  0F15                     	;# 
   565  0F16                     	;# 
   566  0F17                     	;# 
   567  0F18                     	;# 
   568  0F19                     	;# 
   569  0F1A                     	;# 
   570  0F1B                     	;# 
   571  0F1C                     	;# 
   572  0F1D                     	;# 
   573  0F1E                     	;# 
   574  0F1F                     	;# 
   575  0F20                     	;# 
   576  0F21                     	;# 
   577  0F22                     	;# 
   578  0F23                     	;# 
   579  0F24                     	;# 
   580  0F25                     	;# 
   581  0F26                     	;# 
   582  0F27                     	;# 
   583  0F28                     	;# 
   584  0F29                     	;# 
   585  0F2A                     	;# 
   586  0F2B                     	;# 
   587  0F2C                     	;# 
   588  0F2D                     	;# 
   589  0F2E                     	;# 
   590  0F2F                     	;# 
   591  0F30                     	;# 
   592  0F31                     	;# 
   593  0F32                     	;# 
   594  0F33                     	;# 
   595  0F34                     	;# 
   596  0F35                     	;# 
   597  0F36                     	;# 
   598  0F37                     	;# 
   599  0FE4                     	;# 
   600  0FE5                     	;# 
   601  0FE6                     	;# 
   602  0FE7                     	;# 
   603  0FE8                     	;# 
   604  0FE9                     	;# 
   605  0FEA                     	;# 
   606  0FEB                     	;# 
   607  0FED                     	;# 
   608  0FEE                     	;# 
   609  0FEF                     	;# 
   610  0000                     	;# 
   611  0001                     	;# 
   612  0002                     	;# 
   613  0003                     	;# 
   614  0004                     	;# 
   615  0005                     	;# 
   616  0006                     	;# 
   617  0007                     	;# 
   618  0008                     	;# 
   619  0009                     	;# 
   620  000A                     	;# 
   621  000B                     	;# 
   622  000C                     	;# 
   623  000D                     	;# 
   624  000E                     	;# 
   625  0010                     	;# 
   626  0011                     	;# 
   627  0012                     	;# 
   628  0013                     	;# 
   629  0014                     	;# 
   630  0015                     	;# 
   631  0016                     	;# 
   632  0017                     	;# 
   633  0018                     	;# 
   634  0018                     	;# 
   635  0019                     	;# 
   636  001A                     	;# 
   637  001B                     	;# 
   638  001C                     	;# 
   639  001C                     	;# 
   640  001D                     	;# 
   641  001E                     	;# 
   642  001F                     	;# 
   643  008C                     	;# 
   644  008D                     	;# 
   645  008E                     	;# 
   646  0090                     	;# 
   647  0091                     	;# 
   648  0092                     	;# 
   649  0093                     	;# 
   650  0094                     	;# 
   651  0095                     	;# 
   652  0096                     	;# 
   653  0097                     	;# 
   654  0098                     	;# 
   655  0099                     	;# 
   656  009A                     	;# 
   657  009B                     	;# 
   658  009C                     	;# 
   659  009D                     	;# 
   660  009E                     	;# 
   661  009F                     	;# 
   662  010C                     	;# 
   663  010D                     	;# 
   664  010E                     	;# 
   665  0111                     	;# 
   666  0112                     	;# 
   667  0113                     	;# 
   668  0114                     	;# 
   669  0115                     	;# 
   670  0116                     	;# 
   671  0117                     	;# 
   672  0118                     	;# 
   673  0119                     	;# 
   674  011A                     	;# 
   675  011B                     	;# 
   676  011C                     	;# 
   677  011D                     	;# 
   678  018C                     	;# 
   679  018D                     	;# 
   680  018E                     	;# 
   681  0191                     	;# 
   682  0191                     	;# 
   683  0192                     	;# 
   684  0193                     	;# 
   685  0193                     	;# 
   686  0194                     	;# 
   687  0195                     	;# 
   688  0196                     	;# 
   689  0197                     	;# 
   690  0199                     	;# 
   691  0199                     	;# 
   692  0199                     	;# 
   693  019A                     	;# 
   694  019A                     	;# 
   695  019A                     	;# 
   696  019B                     	;# 
   697  019B                     	;# 
   698  019B                     	;# 
   699  019B                     	;# 
   700  019B                     	;# 
   701  019C                     	;# 
   702  019C                     	;# 
   703  019C                     	;# 
   704  019D                     	;# 
   705  019D                     	;# 
   706  019D                     	;# 
   707  019E                     	;# 
   708  019E                     	;# 
   709  019E                     	;# 
   710  019F                     	;# 
   711  019F                     	;# 
   712  019F                     	;# 
   713  019F                     	;# 
   714  019F                     	;# 
   715  020C                     	;# 
   716  020D                     	;# 
   717  020E                     	;# 
   718  0210                     	;# 
   719  0211                     	;# 
   720  0211                     	;# 
   721  0212                     	;# 
   722  0212                     	;# 
   723  0213                     	;# 
   724  0213                     	;# 
   725  0214                     	;# 
   726  0214                     	;# 
   727  0215                     	;# 
   728  0215                     	;# 
   729  0215                     	;# 
   730  0215                     	;# 
   731  0216                     	;# 
   732  0216                     	;# 
   733  0217                     	;# 
   734  0217                     	;# 
   735  021B                     	;# 
   736  021C                     	;# 
   737  021D                     	;# 
   738  021E                     	;# 
   739  021F                     	;# 
   740  028C                     	;# 
   741  028D                     	;# 
   742  028E                     	;# 
   743  0291                     	;# 
   744  0291                     	;# 
   745  0292                     	;# 
   746  0293                     	;# 
   747  0294                     	;# 
   748  0295                     	;# 
   749  0295                     	;# 
   750  0296                     	;# 
   751  0297                     	;# 
   752  0298                     	;# 
   753  0299                     	;# 
   754  0299                     	;# 
   755  029A                     	;# 
   756  029B                     	;# 
   757  029C                     	;# 
   758  029E                     	;# 
   759  029F                     	;# 
   760  030C                     	;# 
   761  030D                     	;# 
   762  030E                     	;# 
   763  0315                     	;# 
   764  0316                     	;# 
   765  0317                     	;# 
   766  0318                     	;# 
   767  0319                     	;# 
   768  031B                     	;# 
   769  031C                     	;# 
   770  031D                     	;# 
   771  031E                     	;# 
   772  031F                     	;# 
   773  038C                     	;# 
   774  038D                     	;# 
   775  038E                     	;# 
   776  0390                     	;# 
   777  0391                     	;# 
   778  0392                     	;# 
   779  0393                     	;# 
   780  0394                     	;# 
   781  0395                     	;# 
   782  0396                     	;# 
   783  0397                     	;# 
   784  0398                     	;# 
   785  0399                     	;# 
   786  039D                     	;# 
   787  039E                     	;# 
   788  039F                     	;# 
   789  040D                     	;# 
   790  040F                     	;# 
   791  040F                     	;# 
   792  0410                     	;# 
   793  0411                     	;# 
   794  0412                     	;# 
   795  0413                     	;# 
   796  0413                     	;# 
   797  0414                     	;# 
   798  0414                     	;# 
   799  0415                     	;# 
   800  0416                     	;# 
   801  0417                     	;# 
   802  0418                     	;# 
   803  041A                     	;# 
   804  041A                     	;# 
   805  041B                     	;# 
   806  041B                     	;# 
   807  041C                     	;# 
   808  041D                     	;# 
   809  041E                     	;# 
   810  041F                     	;# 
   811  048E                     	;# 
   812  048E                     	;# 
   813  048F                     	;# 
   814  0490                     	;# 
   815  0491                     	;# 
   816  0492                     	;# 
   817  0493                     	;# 
   818  0493                     	;# 
   819  0494                     	;# 
   820  0494                     	;# 
   821  0495                     	;# 
   822  0496                     	;# 
   823  0497                     	;# 
   824  0498                     	;# 
   825  049A                     	;# 
   826  049A                     	;# 
   827  049B                     	;# 
   828  049B                     	;# 
   829  049C                     	;# 
   830  049D                     	;# 
   831  049E                     	;# 
   832  049F                     	;# 
   833  050F                     	;# 
   834  0510                     	;# 
   835  0511                     	;# 
   836  0512                     	;# 
   837  0513                     	;# 
   838  0514                     	;# 
   839  0515                     	;# 
   840  0516                     	;# 
   841  0517                     	;# 
   842  0518                     	;# 
   843  0519                     	;# 
   844  051A                     	;# 
   845  058D                     	;# 
   846  058E                     	;# 
   847  058F                     	;# 
   848  058F                     	;# 
   849  058F                     	;# 
   850  0590                     	;# 
   851  0590                     	;# 
   852  0591                     	;# 
   853  0592                     	;# 
   854  0592                     	;# 
   855  0592                     	;# 
   856  0593                     	;# 
   857  0593                     	;# 
   858  0594                     	;# 
   859  0595                     	;# 
   860  0595                     	;# 
   861  0596                     	;# 
   862  0597                     	;# 
   863  0597                     	;# 
   864  0598                     	;# 
   865  0599                     	;# 
   866  0599                     	;# 
   867  0599                     	;# 
   868  059A                     	;# 
   869  059A                     	;# 
   870  059E                     	;# 
   871  059F                     	;# 
   872  059F                     	;# 
   873  0614                     	;# 
   874  0614                     	;# 
   875  0615                     	;# 
   876  0616                     	;# 
   877  0617                     	;# 
   878  0617                     	;# 
   879  0618                     	;# 
   880  0619                     	;# 
   881  061A                     	;# 
   882  061A                     	;# 
   883  061B                     	;# 
   884  061C                     	;# 
   885  068D                     	;# 
   886  068E                     	;# 
   887  068F                     	;# 
   888  0690                     	;# 
   889  0691                     	;# 
   890  0692                     	;# 
   891  0693                     	;# 
   892  0694                     	;# 
   893  0695                     	;# 
   894  0696                     	;# 
   895  0697                     	;# 
   896  0698                     	;# 
   897  0699                     	;# 
   898  069A                     	;# 
   899  069B                     	;# 
   900  069C                     	;# 
   901  069D                     	;# 
   902  069E                     	;# 
   903  069F                     	;# 
   904  070D                     	;# 
   905  070E                     	;# 
   906  070F                     	;# 
   907  0710                     	;# 
   908  0711                     	;# 
   909  0712                     	;# 
   910  0713                     	;# 
   911  0714                     	;# 
   912  0715                     	;# 
   913  0716                     	;# 
   914  0717                     	;# 
   915  0718                     	;# 
   916  0719                     	;# 
   917  071A                     	;# 
   918  071B                     	;# 
   919  071C                     	;# 
   920  071D                     	;# 
   921  071E                     	;# 
   922  071F                     	;# 
   923  078E                     	;# 
   924  078F                     	;# 
   925  0790                     	;# 
   926  0791                     	;# 
   927  0792                     	;# 
   928  0793                     	;# 
   929  0794                     	;# 
   930  0795                     	;# 
   931  0796                     	;# 
   932  0797                     	;# 
   933  0798                     	;# 
   934  0799                     	;# 
   935  079A                     	;# 
   936  079B                     	;# 
   937  079C                     	;# 
   938  079D                     	;# 
   939  079E                     	;# 
   940  079F                     	;# 
   941  080D                     	;# 
   942  080E                     	;# 
   943  080F                     	;# 
   944  0810                     	;# 
   945  0811                     	;# 
   946  0812                     	;# 
   947  0813                     	;# 
   948  0814                     	;# 
   949  0815                     	;# 
   950  0816                     	;# 
   951  0817                     	;# 
   952  0818                     	;# 
   953  0819                     	;# 
   954  081A                     	;# 
   955  081B                     	;# 
   956  081C                     	;# 
   957  081D                     	;# 
   958  081E                     	;# 
   959  081F                     	;# 
   960  090C                     	;# 
   961  090D                     	;# 
   962  090E                     	;# 
   963  090F                     	;# 
   964  0910                     	;# 
   965  0911                     	;# 
   966  0912                     	;# 
   967  0913                     	;# 
   968  0914                     	;# 
   969  0915                     	;# 
   970  0916                     	;# 
   971  0917                     	;# 
   972  0D8E                     	;# 
   973  0D8F                     	;# 
   974  0D90                     	;# 
   975  0D91                     	;# 
   976  0D91                     	;# 
   977  0D92                     	;# 
   978  0D93                     	;# 
   979  0D93                     	;# 
   980  0D94                     	;# 
   981  0D95                     	;# 
   982  0D95                     	;# 
   983  0D96                     	;# 
   984  0D97                     	;# 
   985  0D97                     	;# 
   986  0D98                     	;# 
   987  0D99                     	;# 
   988  0D99                     	;# 
   989  0D9A                     	;# 
   990  0D9B                     	;# 
   991  0D9C                     	;# 
   992  0D9C                     	;# 
   993  0D9D                     	;# 
   994  0D9D                     	;# 
   995  0D9E                     	;# 
   996  0D9F                     	;# 
   997  0DA0                     	;# 
   998  0DA1                     	;# 
   999  0DA1                     	;# 
  1000  0DA2                     	;# 
  1001  0DA3                     	;# 
  1002  0DA3                     	;# 
  1003  0DA4                     	;# 
  1004  0DA5                     	;# 
  1005  0DA5                     	;# 
  1006  0DA6                     	;# 
  1007  0DA7                     	;# 
  1008  0DA7                     	;# 
  1009  0DA8                     	;# 
  1010  0DA9                     	;# 
  1011  0DA9                     	;# 
  1012  0DAA                     	;# 
  1013  0DAB                     	;# 
  1014  0DAC                     	;# 
  1015  0DAC                     	;# 
  1016  0DAD                     	;# 
  1017  0DAD                     	;# 
  1018  0DAE                     	;# 
  1019  0DAF                     	;# 
  1020  0DB0                     	;# 
  1021  0DB1                     	;# 
  1022  0DB1                     	;# 
  1023  0DB2                     	;# 
  1024  0DB3                     	;# 
  1025  0DB3                     	;# 
  1026  0DB4                     	;# 
  1027  0DB5                     	;# 
  1028  0DB5                     	;# 
  1029  0DB6                     	;# 
  1030  0DB7                     	;# 
  1031  0DB7                     	;# 
  1032  0DB8                     	;# 
  1033  0DB9                     	;# 
  1034  0DB9                     	;# 
  1035  0DBA                     	;# 
  1036  0DBB                     	;# 
  1037  0DBC                     	;# 
  1038  0DBC                     	;# 
  1039  0DBD                     	;# 
  1040  0DBD                     	;# 
  1041  0DBE                     	;# 
  1042  0DBF                     	;# 
  1043  0DC0                     	;# 
  1044  0E0C                     	;# 
  1045  0E0D                     	;# 
  1046  0E0E                     	;# 
  1047  0E0F                     	;# 
  1048  0E10                     	;# 
  1049  0E11                     	;# 
  1050  0E12                     	;# 
  1051  0E13                     	;# 
  1052  0E14                     	;# 
  1053  0E15                     	;# 
  1054  0E15                     	;# 
  1055  0E15                     	;# 
  1056  0E16                     	;# 
  1057  0E16                     	;# 
  1058  0E16                     	;# 
  1059  0E17                     	;# 
  1060  0E17                     	;# 
  1061  0E17                     	;# 
  1062  0E18                     	;# 
  1063  0E18                     	;# 
  1064  0E18                     	;# 
  1065  0E19                     	;# 
  1066  0E1A                     	;# 
  1067  0E1B                     	;# 
  1068  0E1D                     	;# 
  1069  0E1E                     	;# 
  1070  0E1F                     	;# 
  1071  0E21                     	;# 
  1072  0E22                     	;# 
  1073  0E23                     	;# 
  1074  0E24                     	;# 
  1075  0E25                     	;# 
  1076  0E26                     	;# 
  1077  0E27                     	;# 
  1078  0E28                     	;# 
  1079  0E29                     	;# 
  1080  0E2D                     	;# 
  1081  0E2E                     	;# 
  1082  0E2F                     	;# 
  1083  0E30                     	;# 
  1084  0E31                     	;# 
  1085  0E32                     	;# 
  1086  0E35                     	;# 
  1087  0E36                     	;# 
  1088  0E37                     	;# 
  1089  0E38                     	;# 
  1090  0E39                     	;# 
  1091  0E3A                     	;# 
  1092  0E3B                     	;# 
  1093  0E3C                     	;# 
  1094  0E3D                     	;# 
  1095  0E3E                     	;# 
  1096  0E90                     	;# 
  1097  0E91                     	;# 
  1098  0E92                     	;# 
  1099  0E93                     	;# 
  1100  0E94                     	;# 
  1101  0E95                     	;# 
  1102  0E96                     	;# 
  1103  0E97                     	;# 
  1104  0E98                     	;# 
  1105  0E99                     	;# 
  1106  0E9A                     	;# 
  1107  0E9B                     	;# 
  1108  0E9C                     	;# 
  1109  0E9D                     	;# 
  1110  0E9E                     	;# 
  1111  0E9F                     	;# 
  1112  0EA0                     	;# 
  1113  0EA1                     	;# 
  1114  0EA2                     	;# 
  1115  0EA3                     	;# 
  1116  0EA4                     	;# 
  1117  0EA5                     	;# 
  1118  0EA6                     	;# 
  1119  0EA7                     	;# 
  1120  0F0F                     	;# 
  1121  0F10                     	;# 
  1122  0F11                     	;# 
  1123  0F12                     	;# 
  1124  0F13                     	;# 
  1125  0F14                     	;# 
  1126  0F15                     	;# 
  1127  0F16                     	;# 
  1128  0F17                     	;# 
  1129  0F18                     	;# 
  1130  0F19                     	;# 
  1131  0F1A                     	;# 
  1132  0F1B                     	;# 
  1133  0F1C                     	;# 
  1134  0F1D                     	;# 
  1135  0F1E                     	;# 
  1136  0F1F                     	;# 
  1137  0F20                     	;# 
  1138  0F21                     	;# 
  1139  0F22                     	;# 
  1140  0F23                     	;# 
  1141  0F24                     	;# 
  1142  0F25                     	;# 
  1143  0F26                     	;# 
  1144  0F27                     	;# 
  1145  0F28                     	;# 
  1146  0F29                     	;# 
  1147  0F2A                     	;# 
  1148  0F2B                     	;# 
  1149  0F2C                     	;# 
  1150  0F2D                     	;# 
  1151  0F2E                     	;# 
  1152  0F2F                     	;# 
  1153  0F30                     	;# 
  1154  0F31                     	;# 
  1155  0F32                     	;# 
  1156  0F33                     	;# 
  1157  0F34                     	;# 
  1158  0F35                     	;# 
  1159  0F36                     	;# 
  1160  0F37                     	;# 
  1161  0FE4                     	;# 
  1162  0FE5                     	;# 
  1163  0FE6                     	;# 
  1164  0FE7                     	;# 
  1165  0FE8                     	;# 
  1166  0FE9                     	;# 
  1167  0FEA                     	;# 
  1168  0FEB                     	;# 
  1169  0FED                     	;# 
  1170  0FEE                     	;# 
  1171  0FEF                     	;# 
  1172  0000                     	;# 
  1173  0001                     	;# 
  1174  0002                     	;# 
  1175  0003                     	;# 
  1176  0004                     	;# 
  1177  0005                     	;# 
  1178  0006                     	;# 
  1179  0007                     	;# 
  1180  0008                     	;# 
  1181  0009                     	;# 
  1182  000A                     	;# 
  1183  000B                     	;# 
  1184  000C                     	;# 
  1185  000D                     	;# 
  1186  000E                     	;# 
  1187  0010                     	;# 
  1188  0011                     	;# 
  1189  0012                     	;# 
  1190  0013                     	;# 
  1191  0014                     	;# 
  1192  0015                     	;# 
  1193  0016                     	;# 
  1194  0017                     	;# 
  1195  0018                     	;# 
  1196  0018                     	;# 
  1197  0019                     	;# 
  1198  001A                     	;# 
  1199  001B                     	;# 
  1200  001C                     	;# 
  1201  001C                     	;# 
  1202  001D                     	;# 
  1203  001E                     	;# 
  1204  001F                     	;# 
  1205  008C                     	;# 
  1206  008D                     	;# 
  1207  008E                     	;# 
  1208  0090                     	;# 
  1209  0091                     	;# 
  1210  0092                     	;# 
  1211  0093                     	;# 
  1212  0094                     	;# 
  1213  0095                     	;# 
  1214  0096                     	;# 
  1215  0097                     	;# 
  1216  0098                     	;# 
  1217  0099                     	;# 
  1218  009A                     	;# 
  1219  009B                     	;# 
  1220  009C                     	;# 
  1221  009D                     	;# 
  1222  009E                     	;# 
  1223  009F                     	;# 
  1224  010C                     	;# 
  1225  010D                     	;# 
  1226  010E                     	;# 
  1227  0111                     	;# 
  1228  0112                     	;# 
  1229  0113                     	;# 
  1230  0114                     	;# 
  1231  0115                     	;# 
  1232  0116                     	;# 
  1233  0117                     	;# 
  1234  0118                     	;# 
  1235  0119                     	;# 
  1236  011A                     	;# 
  1237  011B                     	;# 
  1238  011C                     	;# 
  1239  011D                     	;# 
  1240  018C                     	;# 
  1241  018D                     	;# 
  1242  018E                     	;# 
  1243  0191                     	;# 
  1244  0191                     	;# 
  1245  0192                     	;# 
  1246  0193                     	;# 
  1247  0193                     	;# 
  1248  0194                     	;# 
  1249  0195                     	;# 
  1250  0196                     	;# 
  1251  0197                     	;# 
  1252  0199                     	;# 
  1253  0199                     	;# 
  1254  0199                     	;# 
  1255  019A                     	;# 
  1256  019A                     	;# 
  1257  019A                     	;# 
  1258  019B                     	;# 
  1259  019B                     	;# 
  1260  019B                     	;# 
  1261  019B                     	;# 
  1262  019B                     	;# 
  1263  019C                     	;# 
  1264  019C                     	;# 
  1265  019C                     	;# 
  1266  019D                     	;# 
  1267  019D                     	;# 
  1268  019D                     	;# 
  1269  019E                     	;# 
  1270  019E                     	;# 
  1271  019E                     	;# 
  1272  019F                     	;# 
  1273  019F                     	;# 
  1274  019F                     	;# 
  1275  019F                     	;# 
  1276  019F                     	;# 
  1277  020C                     	;# 
  1278  020D                     	;# 
  1279  020E                     	;# 
  1280  0210                     	;# 
  1281  0211                     	;# 
  1282  0211                     	;# 
  1283  0212                     	;# 
  1284  0212                     	;# 
  1285  0213                     	;# 
  1286  0213                     	;# 
  1287  0214                     	;# 
  1288  0214                     	;# 
  1289  0215                     	;# 
  1290  0215                     	;# 
  1291  0215                     	;# 
  1292  0215                     	;# 
  1293  0216                     	;# 
  1294  0216                     	;# 
  1295  0217                     	;# 
  1296  0217                     	;# 
  1297  021B                     	;# 
  1298  021C                     	;# 
  1299  021D                     	;# 
  1300  021E                     	;# 
  1301  021F                     	;# 
  1302  028C                     	;# 
  1303  028D                     	;# 
  1304  028E                     	;# 
  1305  0291                     	;# 
  1306  0291                     	;# 
  1307  0292                     	;# 
  1308  0293                     	;# 
  1309  0294                     	;# 
  1310  0295                     	;# 
  1311  0295                     	;# 
  1312  0296                     	;# 
  1313  0297                     	;# 
  1314  0298                     	;# 
  1315  0299                     	;# 
  1316  0299                     	;# 
  1317  029A                     	;# 
  1318  029B                     	;# 
  1319  029C                     	;# 
  1320  029E                     	;# 
  1321  029F                     	;# 
  1322  030C                     	;# 
  1323  030D                     	;# 
  1324  030E                     	;# 
  1325  0315                     	;# 
  1326  0316                     	;# 
  1327  0317                     	;# 
  1328  0318                     	;# 
  1329  0319                     	;# 
  1330  031B                     	;# 
  1331  031C                     	;# 
  1332  031D                     	;# 
  1333  031E                     	;# 
  1334  031F                     	;# 
  1335  038C                     	;# 
  1336  038D                     	;# 
  1337  038E                     	;# 
  1338  0390                     	;# 
  1339  0391                     	;# 
  1340  0392                     	;# 
  1341  0393                     	;# 
  1342  0394                     	;# 
  1343  0395                     	;# 
  1344  0396                     	;# 
  1345  0397                     	;# 
  1346  0398                     	;# 
  1347  0399                     	;# 
  1348  039D                     	;# 
  1349  039E                     	;# 
  1350  039F                     	;# 
  1351  040D                     	;# 
  1352  040F                     	;# 
  1353  040F                     	;# 
  1354  0410                     	;# 
  1355  0411                     	;# 
  1356  0412                     	;# 
  1357  0413                     	;# 
  1358  0413                     	;# 
  1359  0414                     	;# 
  1360  0414                     	;# 
  1361  0415                     	;# 
  1362  0416                     	;# 
  1363  0417                     	;# 
  1364  0418                     	;# 
  1365  041A                     	;# 
  1366  041A                     	;# 
  1367  041B                     	;# 
  1368  041B                     	;# 
  1369  041C                     	;# 
  1370  041D                     	;# 
  1371  041E                     	;# 
  1372  041F                     	;# 
  1373  048E                     	;# 
  1374  048E                     	;# 
  1375  048F                     	;# 
  1376  0490                     	;# 
  1377  0491                     	;# 
  1378  0492                     	;# 
  1379  0493                     	;# 
  1380  0493                     	;# 
  1381  0494                     	;# 
  1382  0494                     	;# 
  1383  0495                     	;# 
  1384  0496                     	;# 
  1385  0497                     	;# 
  1386  0498                     	;# 
  1387  049A                     	;# 
  1388  049A                     	;# 
  1389  049B                     	;# 
  1390  049B                     	;# 
  1391  049C                     	;# 
  1392  049D                     	;# 
  1393  049E                     	;# 
  1394  049F                     	;# 
  1395  050F                     	;# 
  1396  0510                     	;# 
  1397  0511                     	;# 
  1398  0512                     	;# 
  1399  0513                     	;# 
  1400  0514                     	;# 
  1401  0515                     	;# 
  1402  0516                     	;# 
  1403  0517                     	;# 
  1404  0518                     	;# 
  1405  0519                     	;# 
  1406  051A                     	;# 
  1407  058D                     	;# 
  1408  058E                     	;# 
  1409  058F                     	;# 
  1410  058F                     	;# 
  1411  058F                     	;# 
  1412  0590                     	;# 
  1413  0590                     	;# 
  1414  0591                     	;# 
  1415  0592                     	;# 
  1416  0592                     	;# 
  1417  0592                     	;# 
  1418  0593                     	;# 
  1419  0593                     	;# 
  1420  0594                     	;# 
  1421  0595                     	;# 
  1422  0595                     	;# 
  1423  0596                     	;# 
  1424  0597                     	;# 
  1425  0597                     	;# 
  1426  0598                     	;# 
  1427  0599                     	;# 
  1428  0599                     	;# 
  1429  0599                     	;# 
  1430  059A                     	;# 
  1431  059A                     	;# 
  1432  059E                     	;# 
  1433  059F                     	;# 
  1434  059F                     	;# 
  1435  0614                     	;# 
  1436  0614                     	;# 
  1437  0615                     	;# 
  1438  0616                     	;# 
  1439  0617                     	;# 
  1440  0617                     	;# 
  1441  0618                     	;# 
  1442  0619                     	;# 
  1443  061A                     	;# 
  1444  061A                     	;# 
  1445  061B                     	;# 
  1446  061C                     	;# 
  1447  068D                     	;# 
  1448  068E                     	;# 
  1449  068F                     	;# 
  1450  0690                     	;# 
  1451  0691                     	;# 
  1452  0692                     	;# 
  1453  0693                     	;# 
  1454  0694                     	;# 
  1455  0695                     	;# 
  1456  0696                     	;# 
  1457  0697                     	;# 
  1458  0698                     	;# 
  1459  0699                     	;# 
  1460  069A                     	;# 
  1461  069B                     	;# 
  1462  069C                     	;# 
  1463  069D                     	;# 
  1464  069E                     	;# 
  1465  069F                     	;# 
  1466  070D                     	;# 
  1467  070E                     	;# 
  1468  070F                     	;# 
  1469  0710                     	;# 
  1470  0711                     	;# 
  1471  0712                     	;# 
  1472  0713                     	;# 
  1473  0714                     	;# 
  1474  0715                     	;# 
  1475  0716                     	;# 
  1476  0717                     	;# 
  1477  0718                     	;# 
  1478  0719                     	;# 
  1479  071A                     	;# 
  1480  071B                     	;# 
  1481  071C                     	;# 
  1482  071D                     	;# 
  1483  071E                     	;# 
  1484  071F                     	;# 
  1485  078E                     	;# 
  1486  078F                     	;# 
  1487  0790                     	;# 
  1488  0791                     	;# 
  1489  0792                     	;# 
  1490  0793                     	;# 
  1491  0794                     	;# 
  1492  0795                     	;# 
  1493  0796                     	;# 
  1494  0797                     	;# 
  1495  0798                     	;# 
  1496  0799                     	;# 
  1497  079A                     	;# 
  1498  079B                     	;# 
  1499  079C                     	;# 
  1500  079D                     	;# 
  1501  079E                     	;# 
  1502  079F                     	;# 
  1503  080D                     	;# 
  1504  080E                     	;# 
  1505  080F                     	;# 
  1506  0810                     	;# 
  1507  0811                     	;# 
  1508  0812                     	;# 
  1509  0813                     	;# 
  1510  0814                     	;# 
  1511  0815                     	;# 
  1512  0816                     	;# 
  1513  0817                     	;# 
  1514  0818                     	;# 
  1515  0819                     	;# 
  1516  081A                     	;# 
  1517  081B                     	;# 
  1518  081C                     	;# 
  1519  081D                     	;# 
  1520  081E                     	;# 
  1521  081F                     	;# 
  1522  090C                     	;# 
  1523  090D                     	;# 
  1524  090E                     	;# 
  1525  090F                     	;# 
  1526  0910                     	;# 
  1527  0911                     	;# 
  1528  0912                     	;# 
  1529  0913                     	;# 
  1530  0914                     	;# 
  1531  0915                     	;# 
  1532  0916                     	;# 
  1533  0917                     	;# 
  1534  0D8E                     	;# 
  1535  0D8F                     	;# 
  1536  0D90                     	;# 
  1537  0D91                     	;# 
  1538  0D91                     	;# 
  1539  0D92                     	;# 
  1540  0D93                     	;# 
  1541  0D93                     	;# 
  1542  0D94                     	;# 
  1543  0D95                     	;# 
  1544  0D95                     	;# 
  1545  0D96                     	;# 
  1546  0D97                     	;# 
  1547  0D97                     	;# 
  1548  0D98                     	;# 
  1549  0D99                     	;# 
  1550  0D99                     	;# 
  1551  0D9A                     	;# 
  1552  0D9B                     	;# 
  1553  0D9C                     	;# 
  1554  0D9C                     	;# 
  1555  0D9D                     	;# 
  1556  0D9D                     	;# 
  1557  0D9E                     	;# 
  1558  0D9F                     	;# 
  1559  0DA0                     	;# 
  1560  0DA1                     	;# 
  1561  0DA1                     	;# 
  1562  0DA2                     	;# 
  1563  0DA3                     	;# 
  1564  0DA3                     	;# 
  1565  0DA4                     	;# 
  1566  0DA5                     	;# 
  1567  0DA5                     	;# 
  1568  0DA6                     	;# 
  1569  0DA7                     	;# 
  1570  0DA7                     	;# 
  1571  0DA8                     	;# 
  1572  0DA9                     	;# 
  1573  0DA9                     	;# 
  1574  0DAA                     	;# 
  1575  0DAB                     	;# 
  1576  0DAC                     	;# 
  1577  0DAC                     	;# 
  1578  0DAD                     	;# 
  1579  0DAD                     	;# 
  1580  0DAE                     	;# 
  1581  0DAF                     	;# 
  1582  0DB0                     	;# 
  1583  0DB1                     	;# 
  1584  0DB1                     	;# 
  1585  0DB2                     	;# 
  1586  0DB3                     	;# 
  1587  0DB3                     	;# 
  1588  0DB4                     	;# 
  1589  0DB5                     	;# 
  1590  0DB5                     	;# 
  1591  0DB6                     	;# 
  1592  0DB7                     	;# 
  1593  0DB7                     	;# 
  1594  0DB8                     	;# 
  1595  0DB9                     	;# 
  1596  0DB9                     	;# 
  1597  0DBA                     	;# 
  1598  0DBB                     	;# 
  1599  0DBC                     	;# 
  1600  0DBC                     	;# 
  1601  0DBD                     	;# 
  1602  0DBD                     	;# 
  1603  0DBE                     	;# 
  1604  0DBF                     	;# 
  1605  0DC0                     	;# 
  1606  0E0C                     	;# 
  1607  0E0D                     	;# 
  1608  0E0E                     	;# 
  1609  0E0F                     	;# 
  1610  0E10                     	;# 
  1611  0E11                     	;# 
  1612  0E12                     	;# 
  1613  0E13                     	;# 
  1614  0E14                     	;# 
  1615  0E15                     	;# 
  1616  0E15                     	;# 
  1617  0E15                     	;# 
  1618  0E16                     	;# 
  1619  0E16                     	;# 
  1620  0E16                     	;# 
  1621  0E17                     	;# 
  1622  0E17                     	;# 
  1623  0E17                     	;# 
  1624  0E18                     	;# 
  1625  0E18                     	;# 
  1626  0E18                     	;# 
  1627  0E19                     	;# 
  1628  0E1A                     	;# 
  1629  0E1B                     	;# 
  1630  0E1D                     	;# 
  1631  0E1E                     	;# 
  1632  0E1F                     	;# 
  1633  0E21                     	;# 
  1634  0E22                     	;# 
  1635  0E23                     	;# 
  1636  0E24                     	;# 
  1637  0E25                     	;# 
  1638  0E26                     	;# 
  1639  0E27                     	;# 
  1640  0E28                     	;# 
  1641  0E29                     	;# 
  1642  0E2D                     	;# 
  1643  0E2E                     	;# 
  1644  0E2F                     	;# 
  1645  0E30                     	;# 
  1646  0E31                     	;# 
  1647  0E32                     	;# 
  1648  0E35                     	;# 
  1649  0E36                     	;# 
  1650  0E37                     	;# 
  1651  0E38                     	;# 
  1652  0E39                     	;# 
  1653  0E3A                     	;# 
  1654  0E3B                     	;# 
  1655  0E3C                     	;# 
  1656  0E3D                     	;# 
  1657  0E3E                     	;# 
  1658  0E90                     	;# 
  1659  0E91                     	;# 
  1660  0E92                     	;# 
  1661  0E93                     	;# 
  1662  0E94                     	;# 
  1663  0E95                     	;# 
  1664  0E96                     	;# 
  1665  0E97                     	;# 
  1666  0E98                     	;# 
  1667  0E99                     	;# 
  1668  0E9A                     	;# 
  1669  0E9B                     	;# 
  1670  0E9C                     	;# 
  1671  0E9D                     	;# 
  1672  0E9E                     	;# 
  1673  0E9F                     	;# 
  1674  0EA0                     	;# 
  1675  0EA1                     	;# 
  1676  0EA2                     	;# 
  1677  0EA3                     	;# 
  1678  0EA4                     	;# 
  1679  0EA5                     	;# 
  1680  0EA6                     	;# 
  1681  0EA7                     	;# 
  1682  0F0F                     	;# 
  1683  0F10                     	;# 
  1684  0F11                     	;# 
  1685  0F12                     	;# 
  1686  0F13                     	;# 
  1687  0F14                     	;# 
  1688  0F15                     	;# 
  1689  0F16                     	;# 
  1690  0F17                     	;# 
  1691  0F18                     	;# 
  1692  0F19                     	;# 
  1693  0F1A                     	;# 
  1694  0F1B                     	;# 
  1695  0F1C                     	;# 
  1696  0F1D                     	;# 
  1697  0F1E                     	;# 
  1698  0F1F                     	;# 
  1699  0F20                     	;# 
  1700  0F21                     	;# 
  1701  0F22                     	;# 
  1702  0F23                     	;# 
  1703  0F24                     	;# 
  1704  0F25                     	;# 
  1705  0F26                     	;# 
  1706  0F27                     	;# 
  1707  0F28                     	;# 
  1708  0F29                     	;# 
  1709  0F2A                     	;# 
  1710  0F2B                     	;# 
  1711  0F2C                     	;# 
  1712  0F2D                     	;# 
  1713  0F2E                     	;# 
  1714  0F2F                     	;# 
  1715  0F30                     	;# 
  1716  0F31                     	;# 
  1717  0F32                     	;# 
  1718  0F33                     	;# 
  1719  0F34                     	;# 
  1720  0F35                     	;# 
  1721  0F36                     	;# 
  1722  0F37                     	;# 
  1723  0FE4                     	;# 
  1724  0FE5                     	;# 
  1725  0FE6                     	;# 
  1726  0FE7                     	;# 
  1727  0FE8                     	;# 
  1728  0FE9                     	;# 
  1729  0FEA                     	;# 
  1730  0FEB                     	;# 
  1731  0FED                     	;# 
  1732  0FEE                     	;# 
  1733  0FEF                     	;# 
  1734  0099                     _WDTCON	set	153
  1735  009D                     _BORCON	set	157
  1736  009A                     _OSCTUNE	set	154
  1737  009C                     _OSCSTAT	set	156
  1738  009B                     _OSCCON	set	155
  1739  0097                     _OPTION_REGbits	set	151
  1740  008E                     _TRISC	set	142
  1741  008D                     _TRISB	set	141
  1742  008C                     _TRISA	set	140
  1743  0090                     _TRISE	set	144
  1744  010E                     _LATC	set	270
  1745  010D                     _LATB	set	269
  1746  010C                     _LATA	set	268
  1747  018C                     _ANSELA	set	396
  1748  018D                     _ANSELB	set	397
  1749  018E                     _ANSELC	set	398
  1750  020E                     _WPUC	set	526
  1751  020C                     _WPUA	set	524
  1752  020D                     _WPUB	set	525
  1753  0210                     _WPUE	set	528
  1754  028E                     _ODCONC	set	654
  1755  028D                     _ODCONB	set	653
  1756  028C                     _ODCONA	set	652
  1757  030E                     _SLRCONC	set	782
  1758  030D                     _SLRCONB	set	781
  1759  030C                     _SLRCONA	set	780
  1760  038E                     _INLVLC	set	910
  1761  038D                     _INLVLB	set	909
  1762  038C                     _INLVLA	set	908
  1763                           
  1764                           	psect	cinit
  1765  07FD                     start_initialization:	
  1766                           ; #config settings
  1767                           
  1768  07FD                     __initialization:
  1769  07FD                     end_of_initialization:	
  1770                           ;End of C runtime variable initialization code
  1771                           
  1772  07FD                     __end_of__initialization:
  1773  07FD  0020               	movlb	0
  1774  07FE  3187  2FB4         	ljmp	_main	;jump to C main() function
  1775                           
  1776                           	psect	cstackCOMMON
  1777  0070                     __pcstackCOMMON:
  1778  0070                     ?_SYSTEM_Initialize:
  1779  0070                     ??_SYSTEM_Initialize:	
  1780                           ; 1 bytes @ 0x0
  1781                           
  1782  0070                     ?_OSCILLATOR_Initialize:	
  1783                           ; 1 bytes @ 0x0
  1784                           
  1785  0070                     ??_OSCILLATOR_Initialize:	
  1786                           ; 1 bytes @ 0x0
  1787                           
  1788  0070                     ?_WDT_Initialize:	
  1789                           ; 1 bytes @ 0x0
  1790                           
  1791  0070                     ??_WDT_Initialize:	
  1792                           ; 1 bytes @ 0x0
  1793                           
  1794  0070                     ?_PIN_MANAGER_Initialize:	
  1795                           ; 1 bytes @ 0x0
  1796                           
  1797  0070                     ??_PIN_MANAGER_Initialize:	
  1798                           ; 1 bytes @ 0x0
  1799                           
  1800  0070                     ?_main:	
  1801                           ; 1 bytes @ 0x0
  1802                           
  1803  0070                     ??_main:	
  1804                           ; 1 bytes @ 0x0
  1805                           
  1806                           
  1807                           ; 1 bytes @ 0x0
  1808  0070                     	ds	1
  1809                           
  1810                           	psect	maintext
  1811  07B4                     __pmaintext:	
  1812 ;;
  1813 ;;Main: autosize = 0, tempsize = 1, incstack = 0, save=0
  1814 ;;
  1815 ;; *************** function _main *****************
  1816 ;; Defined at:
  1817 ;;		line 49 in file "main.c"
  1818 ;; Parameters:    Size  Location     Type
  1819 ;;		None
  1820 ;; Auto vars:     Size  Location     Type
  1821 ;;		None
  1822 ;; Return value:  Size  Location     Type
  1823 ;;                  1    wreg      void 
  1824 ;; Registers used:
  1825 ;;		wreg, status,2, status,0, pclath, cstack
  1826 ;; Tracked objects:
  1827 ;;		On entry : B1F/0
  1828 ;;		On exit  : 0/0
  1829 ;;		Unchanged: 0/0
  1830 ;; Data sizes:     COMMON   BANK0   BANK1   BANK2   BANK3   BANK4   BANK5   BANK6   BANK7   BANK8   BANK9  BANK10  BANK1
      +1  BANK12  BANK13  BANK14  BANK15  BANK16  BANK17  BANK18  BANK19  BANK20  BANK21  BANK22  BANK23  BANK24  BANK25
  1831 ;;      Params:         0       0       0       0       0       0       0       0       0       0       0       0       
      +0       0       0       0       0       0       0       0       0       0       0       0       0       0       0
  1832 ;;      Locals:         0       0       0       0       0       0       0       0       0       0       0       0       
      +0       0       0       0       0       0       0       0       0       0       0       0       0       0       0
  1833 ;;      Temps:          1       0       0       0       0       0       0       0       0       0       0       0       
      +0       0       0       0       0       0       0       0       0       0       0       0       0       0       0
  1834 ;;      Totals:         1       0       0       0       0       0       0       0       0       0       0       0       
      +0       0       0       0       0       0       0       0       0       0       0       0       0       0       0
  1835 ;;Total ram usage:        1 bytes
  1836 ;; Hardware stack levels required when called: 2
  1837 ;; This function calls:
  1838 ;;		_SYSTEM_Initialize
  1839 ;; This function is called by:
  1840 ;;		Startup code after reset
  1841 ;; This function uses a non-reentrant model
  1842 ;;
  1843                           
  1844                           
  1845                           ;psect for function _main
  1846  07B4                     _main:
  1847  07B4                     l661:	
  1848                           ;incstack = 0
  1849                           ; Regs used in _main: [wreg+status,2+status,0+pclath+cstack]
  1850                           
  1851                           
  1852                           ;main.c: 52:     SYSTEM_Initialize();
  1853  07B4  3187  27AA  3187   	fcall	_SYSTEM_Initialize
  1854  07B7                     l663:
  1855                           
  1856                           ;main.c: 70:     {;main.c: 71:         LATB = 0xFF;
  1857  07B7  30FF               	movlw	255
  1858  07B8  0022               	movlb	2	; select bank2
  1859  07B9  008D               	movwf	13	;volatile
  1860  07BA                     l665:
  1861                           
  1862                           ;main.c: 72:         _delay((unsigned long)((500)*(1000000/4000.0)));
  1863  07BA  30A3               	movlw	163
  1864  07BB  00F0               	movwf	??_main
  1865  07BC  3055               	movlw	85
  1866  07BD                     u17:
  1867  07BD  0B89               	decfsz	9,f
  1868  07BE  2FBD               	goto	u17
  1869  07BF  0BF0               	decfsz	??_main,f
  1870  07C0  2FBD               	goto	u17
  1871  07C1  0000               	nop
  1872  07C2                     l667:
  1873                           
  1874                           ;main.c: 73:         LATB = 0x00;
  1875  07C2  0022               	movlb	2	; select bank2
  1876  07C3  018D               	clrf	13	;volatile
  1877  07C4                     l669:
  1878                           
  1879                           ;main.c: 74:         _delay((unsigned long)((500)*(1000000/4000.0)));
  1880  07C4  30A3               	movlw	163
  1881  07C5  00F0               	movwf	??_main
  1882  07C6  3055               	movlw	85
  1883  07C7                     u27:
  1884  07C7  0B89               	decfsz	9,f
  1885  07C8  2FC7               	goto	u27
  1886  07C9  0BF0               	decfsz	??_main,f
  1887  07CA  2FC7               	goto	u27
  1888  07CB  0000               	nop
  1889  07CC  2FB7               	goto	l663
  1890  07CD  3180  2802         	ljmp	start
  1891  07CF                     __end_of_main:
  1892                           
  1893                           	psect	text1
  1894  07AA                     __ptext1:	
  1895 ;; *************** function _SYSTEM_Initialize *****************
  1896 ;; Defined at:
  1897 ;;		line 50 in file "mcc_generated_files/mcc.c"
  1898 ;; Parameters:    Size  Location     Type
  1899 ;;		None
  1900 ;; Auto vars:     Size  Location     Type
  1901 ;;		None
  1902 ;; Return value:  Size  Location     Type
  1903 ;;                  1    wreg      void 
  1904 ;; Registers used:
  1905 ;;		wreg, status,2, status,0, pclath, cstack
  1906 ;; Tracked objects:
  1907 ;;		On entry : 0/0
  1908 ;;		On exit  : 0/0
  1909 ;;		Unchanged: 0/0
  1910 ;; Data sizes:     COMMON   BANK0   BANK1   BANK2   BANK3   BANK4   BANK5   BANK6   BANK7   BANK8   BANK9  BANK10  BANK1
      +1  BANK12  BANK13  BANK14  BANK15  BANK16  BANK17  BANK18  BANK19  BANK20  BANK21  BANK22  BANK23  BANK24  BANK25
  1911 ;;      Params:         0       0       0       0       0       0       0       0       0       0       0       0       
      +0       0       0       0       0       0       0       0       0       0       0       0       0       0       0
  1912 ;;      Locals:         0       0       0       0       0       0       0       0       0       0       0       0       
      +0       0       0       0       0       0       0       0       0       0       0       0       0       0       0
  1913 ;;      Temps:          0       0       0       0       0       0       0       0       0       0       0       0       
      +0       0       0       0       0       0       0       0       0       0       0       0       0       0       0
  1914 ;;      Totals:         0       0       0       0       0       0       0       0       0       0       0       0       
      +0       0       0       0       0       0       0       0       0       0       0       0       0       0       0
  1915 ;;Total ram usage:        0 bytes
  1916 ;; Hardware stack levels used: 1
  1917 ;; Hardware stack levels required when called: 1
  1918 ;; This function calls:
  1919 ;;		_OSCILLATOR_Initialize
  1920 ;;		_PIN_MANAGER_Initialize
  1921 ;;		_WDT_Initialize
  1922 ;; This function is called by:
  1923 ;;		_main
  1924 ;; This function uses a non-reentrant model
  1925 ;;
  1926                           
  1927                           
  1928                           ;psect for function _SYSTEM_Initialize
  1929  07AA                     _SYSTEM_Initialize:
  1930  07AA                     l659:	
  1931                           ;incstack = 0
  1932                           ; Regs used in _SYSTEM_Initialize: [wreg+status,2+status,0+pclath+cstack]
  1933                           
  1934                           
  1935                           ;mcc_generated_files/mcc.c: 53:     PIN_MANAGER_Initialize();
  1936  07AA  3187  27CF  3187   	fcall	_PIN_MANAGER_Initialize
  1937                           
  1938                           ;mcc_generated_files/mcc.c: 54:     OSCILLATOR_Initialize();
  1939  07AD  3187  27A2  3187   	fcall	_OSCILLATOR_Initialize
  1940                           
  1941                           ;mcc_generated_files/mcc.c: 55:     WDT_Initialize();
  1942  07B0  3187  279E  3187   	fcall	_WDT_Initialize
  1943  07B3                     l87:
  1944  07B3  0008               	return
  1945  07B4                     __end_of_SYSTEM_Initialize:
  1946                           
  1947                           	psect	text2
  1948  079E                     __ptext2:	
  1949 ;; *************** function _WDT_Initialize *****************
  1950 ;; Defined at:
  1951 ;;		line 70 in file "mcc_generated_files/mcc.c"
  1952 ;; Parameters:    Size  Location     Type
  1953 ;;		None
  1954 ;; Auto vars:     Size  Location     Type
  1955 ;;		None
  1956 ;; Return value:  Size  Location     Type
  1957 ;;                  1    wreg      void 
  1958 ;; Registers used:
  1959 ;;		wreg
  1960 ;; Tracked objects:
  1961 ;;		On entry : 0/0
  1962 ;;		On exit  : 0/0
  1963 ;;		Unchanged: 0/0
  1964 ;; Data sizes:     COMMON   BANK0   BANK1   BANK2   BANK3   BANK4   BANK5   BANK6   BANK7   BANK8   BANK9  BANK10  BANK1
      +1  BANK12  BANK13  BANK14  BANK15  BANK16  BANK17  BANK18  BANK19  BANK20  BANK21  BANK22  BANK23  BANK24  BANK25
  1965 ;;      Params:         0       0       0       0       0       0       0       0       0       0       0       0       
      +0       0       0       0       0       0       0       0       0       0       0       0       0       0       0
  1966 ;;      Locals:         0       0       0       0       0       0       0       0       0       0       0       0       
      +0       0       0       0       0       0       0       0       0       0       0       0       0       0       0
  1967 ;;      Temps:          0       0       0       0       0       0       0       0       0       0       0       0       
      +0       0       0       0       0       0       0       0       0       0       0       0       0       0       0
  1968 ;;      Totals:         0       0       0       0       0       0       0       0       0       0       0       0       
      +0       0       0       0       0       0       0       0       0       0       0       0       0       0       0
  1969 ;;Total ram usage:        0 bytes
  1970 ;; Hardware stack levels used: 1
  1971 ;; This function calls:
  1972 ;;		Nothing
  1973 ;; This function is called by:
  1974 ;;		_SYSTEM_Initialize
  1975 ;; This function uses a non-reentrant model
  1976 ;;
  1977                           
  1978                           
  1979                           ;psect for function _WDT_Initialize
  1980  079E                     _WDT_Initialize:
  1981  079E                     l657:	
  1982                           ;incstack = 0
  1983                           ; Regs used in _WDT_Initialize: [wreg]
  1984                           
  1985                           
  1986                           ;mcc_generated_files/mcc.c: 73:     WDTCON = 0x16;
  1987  079E  3016               	movlw	22
  1988  079F  0021               	movlb	1	; select bank1
  1989  07A0  0099               	movwf	25	;volatile
  1990  07A1                     l93:
  1991  07A1  0008               	return
  1992  07A2                     __end_of_WDT_Initialize:
  1993                           
  1994                           	psect	text3
  1995  07CF                     __ptext3:	
  1996 ;; *************** function _PIN_MANAGER_Initialize *****************
  1997 ;; Defined at:
  1998 ;;		line 55 in file "mcc_generated_files/pin_manager.c"
  1999 ;; Parameters:    Size  Location     Type
  2000 ;;		None
  2001 ;; Auto vars:     Size  Location     Type
  2002 ;;		None
  2003 ;; Return value:  Size  Location     Type
  2004 ;;                  1    wreg      void 
  2005 ;; Registers used:
  2006 ;;		wreg, status,2
  2007 ;; Tracked objects:
  2008 ;;		On entry : 0/0
  2009 ;;		On exit  : 0/0
  2010 ;;		Unchanged: 0/0
  2011 ;; Data sizes:     COMMON   BANK0   BANK1   BANK2   BANK3   BANK4   BANK5   BANK6   BANK7   BANK8   BANK9  BANK10  BANK1
      +1  BANK12  BANK13  BANK14  BANK15  BANK16  BANK17  BANK18  BANK19  BANK20  BANK21  BANK22  BANK23  BANK24  BANK25
  2012 ;;      Params:         0       0       0       0       0       0       0       0       0       0       0       0       
      +0       0       0       0       0       0       0       0       0       0       0       0       0       0       0
  2013 ;;      Locals:         0       0       0       0       0       0       0       0       0       0       0       0       
      +0       0       0       0       0       0       0       0       0       0       0       0       0       0       0
  2014 ;;      Temps:          0       0       0       0       0       0       0       0       0       0       0       0       
      +0       0       0       0       0       0       0       0       0       0       0       0       0       0       0
  2015 ;;      Totals:         0       0       0       0       0       0       0       0       0       0       0       0       
      +0       0       0       0       0       0       0       0       0       0       0       0       0       0       0
  2016 ;;Total ram usage:        0 bytes
  2017 ;; Hardware stack levels used: 1
  2018 ;; This function calls:
  2019 ;;		Nothing
  2020 ;; This function is called by:
  2021 ;;		_SYSTEM_Initialize
  2022 ;; This function uses a non-reentrant model
  2023 ;;
  2024                           
  2025                           
  2026                           ;psect for function _PIN_MANAGER_Initialize
  2027  07CF                     _PIN_MANAGER_Initialize:
  2028  07CF                     l619:	
  2029                           ;incstack = 0
  2030                           ; Regs used in _PIN_MANAGER_Initialize: [wreg+status,2]
  2031                           
  2032                           
  2033                           ;mcc_generated_files/pin_manager.c: 60:     LATA = 0x00;
  2034  07CF  0022               	movlb	2	; select bank2
  2035  07D0  018C               	clrf	12	;volatile
  2036                           
  2037                           ;mcc_generated_files/pin_manager.c: 61:     LATB = 0x00;
  2038  07D1  018D               	clrf	13	;volatile
  2039                           
  2040                           ;mcc_generated_files/pin_manager.c: 62:     LATC = 0x00;
  2041  07D2  018E               	clrf	14	;volatile
  2042  07D3                     l621:
  2043                           
  2044                           ;mcc_generated_files/pin_manager.c: 67:     TRISE = 0x08;
  2045  07D3  3008               	movlw	8
  2046  07D4  0021               	movlb	1	; select bank1
  2047  07D5  0090               	movwf	16	;volatile
  2048  07D6                     l623:
  2049                           
  2050                           ;mcc_generated_files/pin_manager.c: 68:     TRISA = 0xFF;
  2051  07D6  30FF               	movlw	255
  2052  07D7  008C               	movwf	12	;volatile
  2053  07D8                     l625:
  2054                           
  2055                           ;mcc_generated_files/pin_manager.c: 69:     TRISB = 0xFD;
  2056  07D8  30FD               	movlw	253
  2057  07D9  008D               	movwf	13	;volatile
  2058  07DA                     l627:
  2059                           
  2060                           ;mcc_generated_files/pin_manager.c: 70:     TRISC = 0xFF;
  2061  07DA  30FF               	movlw	255
  2062  07DB  008E               	movwf	14	;volatile
  2063  07DC                     l629:
  2064                           
  2065                           ;mcc_generated_files/pin_manager.c: 75:     ANSELC = 0xFC;
  2066  07DC  30FC               	movlw	252
  2067  07DD  0023               	movlb	3	; select bank3
  2068  07DE  008E               	movwf	14	;volatile
  2069  07DF                     l631:
  2070                           
  2071                           ;mcc_generated_files/pin_manager.c: 76:     ANSELB = 0x3D;
  2072  07DF  303D               	movlw	61
  2073  07E0  008D               	movwf	13	;volatile
  2074  07E1                     l633:
  2075                           
  2076                           ;mcc_generated_files/pin_manager.c: 77:     ANSELA = 0x3F;
  2077  07E1  303F               	movlw	63
  2078  07E2  008C               	movwf	12	;volatile
  2079  07E3                     l635:
  2080                           
  2081                           ;mcc_generated_files/pin_manager.c: 82:     WPUE = 0x00;
  2082  07E3  0024               	movlb	4	; select bank4
  2083  07E4  0190               	clrf	16	;volatile
  2084  07E5                     l637:
  2085                           
  2086                           ;mcc_generated_files/pin_manager.c: 83:     WPUB = 0x00;
  2087  07E5  018D               	clrf	13	;volatile
  2088  07E6                     l639:
  2089                           
  2090                           ;mcc_generated_files/pin_manager.c: 84:     WPUA = 0x00;
  2091  07E6  018C               	clrf	12	;volatile
  2092  07E7                     l641:
  2093                           
  2094                           ;mcc_generated_files/pin_manager.c: 85:     WPUC = 0x00;
  2095  07E7  018E               	clrf	14	;volatile
  2096  07E8                     l643:
  2097                           
  2098                           ;mcc_generated_files/pin_manager.c: 86:     OPTION_REGbits.nWPUEN = 1;
  2099  07E8  0021               	movlb	1	; select bank1
  2100  07E9  1797               	bsf	23,7	;volatile
  2101  07EA                     l645:
  2102                           
  2103                           ;mcc_generated_files/pin_manager.c: 91:     ODCONA = 0x00;
  2104  07EA  0025               	movlb	5	; select bank5
  2105  07EB  018C               	clrf	12	;volatile
  2106  07EC                     l647:
  2107                           
  2108                           ;mcc_generated_files/pin_manager.c: 92:     ODCONB = 0x00;
  2109  07EC  018D               	clrf	13	;volatile
  2110  07ED                     l649:
  2111                           
  2112                           ;mcc_generated_files/pin_manager.c: 93:     ODCONC = 0x00;
  2113  07ED  018E               	clrf	14	;volatile
  2114                           
  2115                           ;mcc_generated_files/pin_manager.c: 98:     SLRCONA = 0xFF;
  2116  07EE  30FF               	movlw	255
  2117  07EF  0026               	movlb	6	; select bank6
  2118  07F0  008C               	movwf	12	;volatile
  2119                           
  2120                           ;mcc_generated_files/pin_manager.c: 99:     SLRCONB = 0xFF;
  2121  07F1  30FF               	movlw	255
  2122  07F2  008D               	movwf	13	;volatile
  2123                           
  2124                           ;mcc_generated_files/pin_manager.c: 100:     SLRCONC = 0xFF;
  2125  07F3  30FF               	movlw	255
  2126  07F4  008E               	movwf	14	;volatile
  2127                           
  2128                           ;mcc_generated_files/pin_manager.c: 105:     INLVLA = 0x3F;
  2129  07F5  303F               	movlw	63
  2130  07F6  0027               	movlb	7	; select bank7
  2131  07F7  008C               	movwf	12	;volatile
  2132                           
  2133                           ;mcc_generated_files/pin_manager.c: 106:     INLVLB = 0xF0;
  2134  07F8  30F0               	movlw	240
  2135  07F9  008D               	movwf	13	;volatile
  2136                           
  2137                           ;mcc_generated_files/pin_manager.c: 107:     INLVLC = 0xFF;
  2138  07FA  30FF               	movlw	255
  2139  07FB  008E               	movwf	14	;volatile
  2140  07FC                     l51:
  2141  07FC  0008               	return
  2142  07FD                     __end_of_PIN_MANAGER_Initialize:
  2143                           
  2144                           	psect	text4
  2145  07A2                     __ptext4:	
  2146 ;; *************** function _OSCILLATOR_Initialize *****************
  2147 ;; Defined at:
  2148 ;;		line 58 in file "mcc_generated_files/mcc.c"
  2149 ;; Parameters:    Size  Location     Type
  2150 ;;		None
  2151 ;; Auto vars:     Size  Location     Type
  2152 ;;		None
  2153 ;; Return value:  Size  Location     Type
  2154 ;;                  1    wreg      void 
  2155 ;; Registers used:
  2156 ;;		wreg, status,2
  2157 ;; Tracked objects:
  2158 ;;		On entry : 0/0
  2159 ;;		On exit  : 0/0
  2160 ;;		Unchanged: 0/0
  2161 ;; Data sizes:     COMMON   BANK0   BANK1   BANK2   BANK3   BANK4   BANK5   BANK6   BANK7   BANK8   BANK9  BANK10  BANK1
      +1  BANK12  BANK13  BANK14  BANK15  BANK16  BANK17  BANK18  BANK19  BANK20  BANK21  BANK22  BANK23  BANK24  BANK25
  2162 ;;      Params:         0       0       0       0       0       0       0       0       0       0       0       0       
      +0       0       0       0       0       0       0       0       0       0       0       0       0       0       0
  2163 ;;      Locals:         0       0       0       0       0       0       0       0       0       0       0       0       
      +0       0       0       0       0       0       0       0       0       0       0       0       0       0       0
  2164 ;;      Temps:          0       0       0       0       0       0       0       0       0       0       0       0       
      +0       0       0       0       0       0       0       0       0       0       0       0       0       0       0
  2165 ;;      Totals:         0       0       0       0       0       0       0       0       0       0       0       0       
      +0       0       0       0       0       0       0       0       0       0       0       0       0       0       0
  2166 ;;Total ram usage:        0 bytes
  2167 ;; Hardware stack levels used: 1
  2168 ;; This function calls:
  2169 ;;		Nothing
  2170 ;; This function is called by:
  2171 ;;		_SYSTEM_Initialize
  2172 ;; This function uses a non-reentrant model
  2173 ;;
  2174                           
  2175                           
  2176                           ;psect for function _OSCILLATOR_Initialize
  2177  07A2                     _OSCILLATOR_Initialize:
  2178  07A2                     l651:	
  2179                           ;incstack = 0
  2180                           ; Regs used in _OSCILLATOR_Initialize: [wreg+status,2]
  2181                           
  2182                           
  2183                           ;mcc_generated_files/mcc.c: 61:     OSCCON = 0x5A;
  2184  07A2  305A               	movlw	90
  2185  07A3  0021               	movlb	1	; select bank1
  2186  07A4  009B               	movwf	27	;volatile
  2187                           
  2188                           ;mcc_generated_files/mcc.c: 63:     OSCSTAT = 0x80;
  2189  07A5  3080               	movlw	128
  2190  07A6  009C               	movwf	28	;volatile
  2191  07A7                     l653:
  2192                           
  2193                           ;mcc_generated_files/mcc.c: 65:     OSCTUNE = 0x00;
  2194  07A7  019A               	clrf	26	;volatile
  2195  07A8                     l655:
  2196                           
  2197                           ;mcc_generated_files/mcc.c: 67:     BORCON = 0x00;
  2198  07A8  019D               	clrf	29	;volatile
  2199  07A9                     l90:
  2200  07A9  0008               	return
  2201  07AA                     __end_of_OSCILLATOR_Initialize:
  2202  007E                     btemp	set	126	;btemp
  2203  007E                     wtemp0	set	126
  2204                           
  2205                           	psect	config
  2206                           
  2207                           ;Config register CONFIG1 @ 0x8007
  2208                           ;	Oscillator Selection Bits
  2209                           ;	FOSC = INTOSC, INTOSC oscillator: I/O function on CLKIN pin
  2210                           ;	Watchdog Timer Enable
  2211                           ;	WDTE = OFF, WDT disabled
  2212                           ;	Power-up Timer Enable
  2213                           ;	PWRTE = OFF, PWRT disabled
  2214                           ;	MCLR Pin Function Select
  2215                           ;	MCLRE = ON, MCLR/VPP pin function is MCLR
  2216                           ;	Flash Program Memory Code Protection
  2217                           ;	CP = OFF, Program memory code protection is disabled
  2218                           ;	Brown-out Reset Enable
  2219                           ;	BOREN = ON, Brown-out Reset enabled
  2220                           ;	Clock Out Enable
  2221                           ;	CLKOUTEN = OFF, CLKOUT function is disabled. I/O or oscillator function on the CLKOUT 
      +                          pin
  2222                           ;	Internal/External Switchover Mode
  2223                           ;	IESO = ON, Internal/External Switchover Mode is enabled
  2224                           ;	Fail-Safe Clock Monitor Enable
  2225                           ;	FCMEN = ON, Fail-Safe Clock Monitor is enabled
  2226  8007                     	org	32775
  2227  8007  3FE4               	dw	16356
  2228                           
  2229                           ;Config register CONFIG2 @ 0x8008
  2230                           ;	Flash Memory Self-Write Protection
  2231                           ;	WRT = OFF, Write protection off
  2232                           ;	Peripheral Pin Select one-way control
  2233                           ;	PPS1WAY = ON, The PPSLOCK bit cannot be cleared once it is set by software
  2234                           ;	Zero-cross detect disable
  2235                           ;	ZCD = OFF, Zero-cross detect circuit is disabled at POR
  2236                           ;	Phase Lock Loop enable
  2237                           ;	PLLEN = OFF, 4x PLL is enabled when software sets the SPLLEN bit
  2238                           ;	Stack Overflow/Underflow Reset Enable
  2239                           ;	STVREN = ON, Stack Overflow or Underflow will cause a Reset
  2240                           ;	Brown-out Reset Voltage Selection
  2241                           ;	BORV = LO, Brown-out Reset Voltage (Vbor), low trip point selected.
  2242                           ;	Low-Power Brown Out Reset
  2243                           ;	LPBOR = OFF, Low-Power BOR is disabled
  2244                           ;	Low-Voltage Programming Enable
  2245                           ;	LVP = OFF, High-voltage on MCLR/VPP must be used for programming
  2246  8008                     	org	32776
  2247  8008  1EFF               	dw	7935

Data Sizes:
    Strings     0
    Constant    0
    Data        0
    BSS         0
    Persistent  32
    Stack       0

Auto Spaces:
    Space          Size  Autos    Used
    COMMON           14      1       1
    BANK0            80      0       0
    BANK1            80      0       0
    BANK2            80      0       0
    BANK3            80      0       0
    BANK4            80      0       0
    BANK5            80      0       0
    BANK6            80      0       0
    BANK7            80      0       0
    BANK8            80      0       0
    BANK9            80      0       0
    BANK10           80      0       0
    BANK11           80      0       0
    BANK12           48      0       0
    BANK13           80      0       0
    BANK14           80      0       0
    BANK15           80      0       0
    BANK16           80      0       0
    BANK17           80      0       0
    BANK18           80      0       0
    BANK19           80      0       0
    BANK20           80      0       0
    BANK21           80      0       0
    BANK22           80      0       0
    BANK23           80      0       0
    BANK24           80      0       0
    BANK25           32      0       0

Pointer List with Targets:

    None.

Critical Paths under _main in COMMON

    None.

Critical Paths under _main in BANK0

    None.

Critical Paths under _main in BANK1

    None.

Critical Paths under _main in BANK2

    None.

Critical Paths under _main in BANK3

    None.

Critical Paths under _main in BANK4

    None.

Critical Paths under _main in BANK5

    None.

Critical Paths under _main in BANK6

    None.

Critical Paths under _main in BANK7

    None.

Critical Paths under _main in BANK8

    None.

Critical Paths under _main in BANK9

    None.

Critical Paths under _main in BANK10

    None.

Critical Paths under _main in BANK11

    None.

Critical Paths under _main in BANK12

    None.

Critical Paths under _main in BANK13

    None.

Critical Paths under _main in BANK14

    None.

Critical Paths under _main in BANK15

    None.

Critical Paths under _main in BANK16

    None.

Critical Paths under _main in BANK17

    None.

Critical Paths under _main in BANK18

    None.

Critical Paths under _main in BANK19

    None.

Critical Paths under _main in BANK20

    None.

Critical Paths under _main in BANK21

    None.

Critical Paths under _main in BANK22

    None.

Critical Paths under _main in BANK23

    None.

Critical Paths under _main in BANK24

    None.

Critical Paths under _main in BANK25

    None.

Call Graph Tables:

 ---------------------------------------------------------------------------------
 (Depth) Function   	        Calls       Base Space   Used Autos Params    Refs
 ---------------------------------------------------------------------------------
 (0) _main                                                 1     1      0       0
                                              0 COMMON     1     1      0
                  _SYSTEM_Initialize
 ---------------------------------------------------------------------------------
 (1) _SYSTEM_Initialize                                    0     0      0       0
              _OSCILLATOR_Initialize
             _PIN_MANAGER_Initialize
                     _WDT_Initialize
 ---------------------------------------------------------------------------------
 (2) _WDT_Initialize                                       0     0      0       0
 ---------------------------------------------------------------------------------
 (2) _PIN_MANAGER_Initialize                               0     0      0       0
 ---------------------------------------------------------------------------------
 (2) _OSCILLATOR_Initialize                                0     0      0       0
 ---------------------------------------------------------------------------------
 Estimated maximum stack depth 2
 ---------------------------------------------------------------------------------

 Call Graph Graphs:

 _main (ROOT)
   _SYSTEM_Initialize
     _OSCILLATOR_Initialize
     _PIN_MANAGER_Initialize
     _WDT_Initialize

 Address spaces:
Name               Size   Autos  Total    Cost      Usage
BIGRAM_1           3E0      0       0       0        0.0%
NULL                 0      0       0       0        0.0%
CODE                 0      0       0       0        0.0%
BIGRAM             3F0      0       0       1        0.0%
BITSFR0              0      0       0       1        0.0%
SFR0                 0      0       0       1        0.0%
BITCOMMON            E      0       0       2        0.0%
BITSFR1              0      0       0       2        0.0%
SFR1                 0      0       0       2        0.0%
COMMON               E      1       1       3        7.1%
BITSFR2              0      0       0       3        0.0%
SFR2                 0      0       0       3        0.0%
BITSFR3              0      0       0       4        0.0%
SFR3                 0      0       0       4        0.0%
STACK                0      0       0       4        0.0%
BANK0               50      0       0       5        0.0%
BITSFR4              0      0       0       5        0.0%
SFR4                 0      0       0       5        0.0%
BITBANK0            50      0       0       6        0.0%
BITSFR5              0      0       0       6        0.0%
SFR5                 0      0       0       6        0.0%
BITBANK1            50      0       0       7        0.0%
BITSFR6              0      0       0       7        0.0%
SFR6                 0      0       0       7        0.0%
BANK1               50      0       0       8        0.0%
BITSFR7              0      0       0       8        0.0%
SFR7                 0      0       0       8        0.0%
BITBANK2            50      0       0       9        0.0%
BITSFR8              0      0       0       9        0.0%
SFR8                 0      0       0       9        0.0%
BANK2               50      0       0      10        0.0%
BITSFR9              0      0       0      10        0.0%
SFR9                 0      0       0      10        0.0%
BITBANK3            50      0       0      11        0.0%
BITSFR10             0      0       0      11        0.0%
SFR10                0      0       0      11        0.0%
BANK3               50      0       0      12        0.0%
BITSFR11             0      0       0      12        0.0%
SFR11                0      0       0      12        0.0%
BITSFR12             0      0       0      13        0.0%
SFR12                0      0       0      13        0.0%
ABS                  0      0       0      13        0.0%
BITBANK4            50      0       0      14        0.0%
BITSFR13             0      0       0      14        0.0%
SFR13                0      0       0      14        0.0%
BANK4               50      0       0      15        0.0%
BITSFR14             0      0       0      15        0.0%
SFR14                0      0       0      15        0.0%
BITBANK5            50      0       0      16        0.0%
BITSFR15             0      0       0      16        0.0%
SFR15                0      0       0      16        0.0%
BANK5               50      0       0      17        0.0%
BITSFR16             0      0       0      17        0.0%
SFR16                0      0       0      17        0.0%
BITBANK6            50      0       0      18        0.0%
BITSFR17             0      0       0      18        0.0%
SFR17                0      0       0      18        0.0%
BANK6               50      0       0      19        0.0%
BITSFR18             0      0       0      19        0.0%
SFR18                0      0       0      19        0.0%
BITBANK7            50      0       0      20        0.0%
BITSFR19             0      0       0      20        0.0%
SFR19                0      0       0      20        0.0%
BANK7               50      0       0      21        0.0%
BITSFR20             0      0       0      21        0.0%
SFR20                0      0       0      21        0.0%
BITBANK8            50      0       0      22        0.0%
BITSFR21             0      0       0      22        0.0%
SFR21                0      0       0      22        0.0%
BANK8               50      0       0      23        0.0%
BITSFR22             0      0       0      23        0.0%
SFR22                0      0       0      23        0.0%
BITBANK9            50      0       0      24        0.0%
BITSFR23             0      0       0      24        0.0%
SFR23                0      0       0      24        0.0%
BANK9               50      0       0      25        0.0%
BITSFR24             0      0       0      25        0.0%
SFR24                0      0       0      25        0.0%
BITBANK10           50      0       0      26        0.0%
BITSFR25             0      0       0      26        0.0%
SFR25                0      0       0      26        0.0%
BANK10              50      0       0      27        0.0%
BITSFR26             0      0       0      27        0.0%
SFR26                0      0       0      27        0.0%
BITBANK11           50      0       0      28        0.0%
BITSFR27             0      0       0      28        0.0%
SFR27                0      0       0      28        0.0%
BANK11              50      0       0      29        0.0%
BITSFR28             0      0       0      29        0.0%
SFR28                0      0       0      29        0.0%
BITSFR29             0      0       0      30        0.0%
SFR29                0      0       0      30        0.0%
DATA                 0      0       0      30        0.0%
BITBANK12           30      0       0      31        0.0%
BITSFR30             0      0       0      31        0.0%
SFR30                0      0       0      31        0.0%
BANK12              30      0       0      32        0.0%
BITSFR31             0      0       0      32        0.0%
SFR31                0      0       0      32        0.0%
BITBANK13           50      0       0      33        0.0%
BANK13              50      0       0      34        0.0%
BITBANK14           50      0       0      35        0.0%
BANK14              50      0       0      36        0.0%
BITBANK15           50      0       0      37        0.0%
BANK15              50      0       0      38        0.0%
BITBANK16           50      0       0      39        0.0%
BANK16              50      0       0      40        0.0%
BITBANK17           50      0       0      41        0.0%
BANK17              50      0       0      42        0.0%
BITBANK18           50      0       0      43        0.0%
BANK18              50      0       0      44        0.0%
BITBANK19           50      0       0      45        0.0%
BANK19              50      0       0      46        0.0%
BITBANK20           50      0       0      47        0.0%
BANK20              50      0       0      48        0.0%
BITBANK21           50      0       0      49        0.0%
BANK21              50      0       0      50        0.0%
BITBANK22           50      0       0      51        0.0%
BANK22              50      0       0      52        0.0%
BITBANK23           50      0       0      53        0.0%
BANK23              50      0       0      54        0.0%
BITBANK24           50      0       0      55        0.0%
BANK24              50      0       0      56        0.0%
BITBANK25           20      0       0      57        0.0%
BANK25              20      0       0      58        0.0%


Microchip Technology PIC Macro Assembler V2.32 build 20210201212658 
Symbol Table                                                                                   Mon Mar 22 14:40:08 2021

                             l51 07FC                               l90 07A9                               l93 07A1  
                             l87 07B3                               u17 07BD                               u27 07C7  
                            l621 07D3                              l631 07DF                              l623 07D6  
                            l641 07E7                              l633 07E1                              l625 07D8  
                            l651 07A2                              l643 07E8                              l635 07E3  
                            l627 07DA                              l619 07CF                              l653 07A7  
                            l645 07EA                              l637 07E5                              l629 07DC  
                            l661 07B4                              l655 07A8                              l647 07EC  
                            l639 07E6                              l663 07B7                              l649 07ED  
                            l657 079E                              l665 07BA                              l659 07AA  
                            l667 07C2                              l669 07C4                              wreg 0009  
                           _LATA 010C                             _LATB 010D                             _LATC 010E  
                           _WPUA 020C                             _WPUB 020D                             _WPUC 020E  
                           _WPUE 0210                             _main 07B4                             btemp 007E  
                           start 0002   __size_of_OSCILLATOR_Initialize 0008    __end_of_OSCILLATOR_Initialize 07AA  
                          ?_main 0070                            _TRISA 008C                            _TRISB 008D  
                          _TRISC 008E                            _TRISE 0090                   _WDT_Initialize 079E  
                          wtemp0 007E                  __initialization 07FD                     __end_of_main 07CF  
                         ??_main 0070           __end_of_WDT_Initialize 07A2                           _ANSELA 018C  
                         _ANSELB 018D                           _ANSELC 018E                           _BORCON 009D  
                         _ODCONA 028C                           _ODCONB 028D                           _ODCONC 028E  
                         _INLVLA 038C                           _INLVLB 038D                           _INLVLC 038E  
                         _OSCCON 009B                           _WDTCON 0099                  ?_WDT_Initialize 0070  
              _SYSTEM_Initialize 07AA          __end_of__initialization 07FD               ?_SYSTEM_Initialize 0070  
                 __pcstackCOMMON 0070              ??_SYSTEM_Initialize 0070                   _OPTION_REGbits 0097  
      __end_of_SYSTEM_Initialize 07B4                       __pmaintext 07B4                          _OSCSTAT 009C  
                        _OSCTUNE 009A                          _SLRCONA 030C                          _SLRCONB 030D  
                        _SLRCONC 030E                          __ptext1 07AA                          __ptext2 079E  
                        __ptext3 07CF                          __ptext4 07A2            _OSCILLATOR_Initialize 07A2  
       ??_PIN_MANAGER_Initialize 0070       __size_of_SYSTEM_Initialize 000A             end_of_initialization 07FD  
               ??_WDT_Initialize 0070           ?_OSCILLATOR_Initialize 0070              start_initialization 07FD  
__size_of_PIN_MANAGER_Initialize 002E                        ___latbits 0003           _PIN_MANAGER_Initialize 07CF  
        ??_OSCILLATOR_Initialize 0070                    __size_of_main 001B          __size_of_WDT_Initialize 0004  
        ?_PIN_MANAGER_Initialize 0070   __end_of_PIN_MANAGER_Initialize 07FD  
